(dp1
S'OriginalConfig'
p2
ccopy_reg
_reconstructor
p3
(cWMCore.Configuration
Configuration
p4
c__builtin__
object
p5
NtRp6
(dp7
S'Site'
p8
g3
(cWMCore.Configuration
ConfigSection
p9
g5
NtRp10
(dp11
S'_internal_skipChecks'
p12
I00
sS'_internal_documentation'
p13
S''
sS'_internal_settings'
p14
c__builtin__
set
p15
((lp16
S'whitelist'
p17
aS'storageSite'
p18
atRp19
sS'_internal_name'
p20
g8
sS'_internal_docstrings'
p21
(dp22
sS'_internal_children'
p23
g15
((ltRp24
sg18
S'T2_CH_CERN'
p25
sS'_internal_parent_ref'
p26
Nsg17
(lp27
S'T2_US_MIT'
p28
asbsS'_internal_sections'
p29
(lp30
S'General'
p31
aS'JobType'
p32
aS'Data'
p33
ag8
asg31
g3
(g9
g5
NtRp34
(dp35
g12
I00
sg13
S''
sg14
g15
((lp36
S'workArea'
p37
aS'requestName'
p38
atRp39
sg20
g31
sg21
(dp40
sg23
g15
((ltRp41
sg38
S'cascadev2ppb2013InvMass'
p42
sg26
Nsg37
g42
sbsS'_internal_webapps'
p43
(lp44
sS'_internal_components'
p45
(lp46
sg33
g3
(g9
g5
NtRp47
(dp48
S'inputDataset'
p49
S'/PAMinBiasUPC/davidlw-PA2013_FlowCorr_PromptReco_MB_Gplus_Rereco_ReTracking_v18-25c9a89be536a41c8ccb3c75e9fd9358/USER'
p50
sS'outputDatasetTag'
p51
S'pPb_Cascade_Rereco_MB'
p52
sS'publishDBS'
p53
S'phys03'
p54
sg12
I00
sS'splitting'
p55
S'FileBased'
p56
sS'unitsPerJob'
p57
I10
sg13
S''
sg14
g15
((lp58
g49
ag51
ag53
aS'publication'
p59
ag57
aS'inputDBS'
p60
ag55
aS'outLFNDirBase'
p61
atRp62
sg20
g33
sg60
g54
sg21
(dp63
sg23
g15
((ltRp64
sg61
S'/store/group/phys_heavyions/btran/'
p65
sg26
Nsg59
I00
sbsg32
g3
(g9
g5
NtRp66
(dp67
g12
I00
sg13
S''
sg14
g15
((lp68
S'psetName'
p69
aS'pluginName'
p70
atRp71
sg20
g32
sg21
(dp72
sg70
S'Analysis'
p73
sg23
g15
((ltRp74
sg69
S'/afs/cern.ch/user/b/btran/work/CMSSW_5_3_20/src/XiAnalyzer/XiAnalyzer/test/xianalysis_cfg.py'
p75
sg26
NsbsbsS'voGroup'
p76
S''
sS'Server'
p77
S'cmsweb.cern.ch'
p78
sS'instance'
p79
S'prod'
p80
sS'RequestName'
p81
V161116_224724:btran_crab_cascadev2ppb2013InvMass
p82
sS'voRole'
p83
S'NULL'
p84
sS'Port'
p85
S''
s.